(lp0
(lp1
I1
a(lp2
(lp3
S'name'
p4
aS'enumeration'
p5
aa(lp6
S'descriptor'
p7
aS'desc3.txt'
p8
aa(lp9
S'reload'
p10
aI01
aaa(ifuzz_configuration.test
test_package
p11
(dp12
S'raw_data'
p13
(I1
I5163
I1
I1
tp14
sS'operation_list'
p15
(lp16
(lp17
I0
aS'fuzz'
p18
aS'isVendor'
p19
aS'ALL'
p20
aa(lp21
I0
ag18
aS'idProduct'
p22
aS'ALL'
p23
aa(lp24
I1
ag18
aS'bDeviceClass'
p25
aS'ALL'
p26
aa(lp27
I1
ag18
aS'bInterfaceClass'
p28
aS'ALL'
p29
aasS'name_list'
p30
(lp31
S'all_vender_product_ids'
p32
aS'all_class_ids'
p33
asS'emulator'
p34
Nsbaa(lp35
I2
ag2
a(ifuzz_configuration.test
test_package
p36
(dp37
g13
(I1
I5163
I2
I2
tp38
sg15
g16
sg30
g31
sg34
Nsbaa.