(lp0
(lp1
I48814
a(lp2
(lp3
S'name'
p4
aS'enumeration'
p5
aa(lp6
S'descriptor'
p7
aS'desc2.txt'
p8
aa(lp9
S'reload'
p10
aI01
aaa(ifuzz_configuration.test
test_package
p11
(dp12
S'raw_data'
p13
(I1133
I50959
I3
I3
tp14
sS'operation_list'
p15
(lp16
(lp17
I0
aS'fuzz'
p18
aS'isVendor'
p19
aS'ALL'
p20
aa(lp21
I0
ag18
aS'idProduct'
p22
aS'ALL'
p23
aa(lp24
I1
ag18
aS'bDeviceClass'
p25
aS'ALL'
p26
aa(lp27
I1
ag18
aS'bInterfaceClass'
p28
aS'ALL'
p29
aasS'name_list'
p30
(lp31
S'all_vender_product_ids'
p32
aS'all_class_ids'
p33
asS'emulator'
p34
Nsbaa(lp35
I93598
ag2
a(ifuzz_configuration.test
test_package
p36
(dp37
g13
(I1273
I482
I5
I5
tp38
sg15
g16
sg30
g31
sg34
Nsbaa(lp39
I206806
ag2
a(ifuzz_configuration.test
test_package
p40
(dp41
g13
(I3110
I24
I11
I11
tp42
sg15
g16
sg30
g31
sg34
Nsbaa.