(lp0
(lp1
I2715386
a(lp2
(lp3
S'name'
p4
aS'enumeration'
p5
aa(lp6
S'descriptor'
p7
aS'desc3.txt'
p8
aa(lp9
S'reload'
p10
aI01
aaa(ifuzz_configuration.test
test_package
p11
(dp12
S'raw_data'
p13
(I1193
I12889
I2
I2
I17
I5
tp14
sS'operation_list'
p15
(lp16
(lp17
I0
aS'fuzz'
p18
aS'isVendor'
p19
aS'ALL'
p20
aa(lp21
I0
ag18
aS'idProduct'
p22
aS'ALL'
p23
aa(lp24
I1
ag18
aS'bDeviceClass'
p25
aS'ALL'
p26
aa(lp27
I1
ag18
aS'bInterfaceClass'
p28
aS'ALL'
p29
aa(lp30
I2
ag18
aS'bNumEndpoints'
p31
aS'USB_Interface_Descriptor'
p32
aa(lp33
I3
ag18
aS'bNumInterfaces'
p34
aS'USB_Configuration_Descriptor'
p35
aasS'name_list'
p36
(lp37
S'all_vender_product_ids'
p38
aS'all_class_ids'
p39
aS'dev_desc_blength_invalid'
p40
aS'conf_bNum_Interface_invalid'
p41
asS'emulator'
p42
Nsbaa(lp43
I9287541
ag2
a(ifuzz_configuration.test
test_package
p44
(dp45
g13
(I4184
I4112
I1
I1
I28
I5
tp46
sg15
g16
sg36
g37
sg42
Nsbaa(lp47
I2626827
ag2
a(ifuzz_configuration.test
test_package
p48
(dp49
g13
(I1193
I12602
I2
I2
I5
I10
tp50
sg15
g16
sg36
g37
sg42
Nsbaa(lp51
I9511744
ag2
a(ifuzz_configuration.test
test_package
p52
(dp53
g13
(I4454
I43981
I1
I1
I18
I100
tp54
sg15
g16
sg36
g37
sg42
Nsbaa(lp55
I6059954
ag2
a(ifuzz_configuration.test
test_package
p56
(dp57
g13
(I1891
I4147
I255
I255
I20
I100
tp58
sg15
g16
sg36
g37
sg42
Nsbaa(lp59
I8455766
ag2
a(ifuzz_configuration.test
test_package
p60
(dp61
g13
(I3294
I26
I1
I1
I23
I5
tp62
sg15
g16
sg36
g37
sg42
Nsbaa(lp63
I9581823
ag2
a(ifuzz_configuration.test
test_package
p64
(dp65
g13
(I4611
I320
I3
I3
I24
I25
tp66
sg15
g16
sg36
g37
sg42
Nsbaa.