(lp0
(lp1
I7841715
a(lp2
(lp3
S'name'
p4
aS'enumeration'
p5
aa(lp6
S'descriptor'
p7
aS'desc3.txt'
p8
aa(lp9
S'reload'
p10
aI01
aaa(ifuzz_configuration.test
test_package
p11
(dp12
S'raw_data'
p13
(I2991
I235
I3
I3
I3
I0
tp14
sS'operation_list'
p15
(lp16
(lp17
I0
aS'fuzz'
p18
aS'isVendor'
p19
aS'ALL'
p20
aa(lp21
I0
ag18
aS'idProduct'
p22
aS'ALL'
p23
aa(lp24
I1
ag18
aS'bDeviceClass'
p25
aS'ALL'
p26
aa(lp27
I1
ag18
aS'bInterfaceClass'
p28
aS'ALL'
p29
aa(lp30
I2
ag18
aS'bNumEndpoints'
p31
aS'USB_Interface_Descriptor'
p32
aa(lp33
I3
ag18
aS'bNumInterfaces'
p34
aS'USB_Configuration_Descriptor'
p35
aasS'name_list'
p36
(lp37
S'all_vender_product_ids'
p38
aS'all_class_ids'
p39
aS'dev_desc_blength_invalid'
p40
aS'conf_bNum_Interface_invalid'
p41
asS'emulator'
p42
Nsbaa(lp43
I8622576
ag2
a(ifuzz_configuration.test
test_package
p44
(dp45
g13
(I3469
I1362
I3
I3
I25
I5
tp46
sg15
g16
sg36
g37
sg42
Nsbaa(lp47
I6056107
ag2
a(ifuzz_configuration.test
test_package
p48
(dp49
g13
(I1891
I4117
I255
I255
I1
I10
tp50
sg15
g16
sg36
g37
sg42
Nsbaa(lp51
I3901060
ag2
a(ifuzz_configuration.test
test_package
p52
(dp53
g13
(I1323
I5396
I2
I2
I2
I0
tp54
sg15
g16
sg36
g37
sg42
Nsbaa(lp55
I2396484
ag2
a(ifuzz_configuration.test
test_package
p56
(dp57
g13
(I1193
I4263
I1
I1
I16
I100
tp58
sg15
g16
sg36
g37
sg42
Nsbaa(lp59
I9789142
ag2
a(ifuzz_configuration.test
test_package
p60
(dp61
g13
(I4931
I5
I0
I0
I28
I10
tp62
sg15
g16
sg36
g37
sg42
Nsbaa(lp63
I5006486
ag2
a(ifuzz_configuration.test
test_package
p64
(dp65
g13
(I1496
I16393
I1
I1
I17
I5
tp66
sg15
g16
sg36
g37
sg42
Nsbaa(lp67
I10230879
ag2
a(ifuzz_configuration.test
test_package
p68
(dp69
g13
(I5640
I276
I0
I0
I25
I100
tp70
sg15
g16
sg36
g37
sg42
Nsbaa(lp71
I10845869
ag2
a(ifuzz_configuration.test
test_package
p72
(dp73
g13
(I6916
I24703
I0
I0
I23
I100
tp74
sg15
g16
sg36
g37
sg42
Nsbaa(lp75
I6711721
ag2
a(ifuzz_configuration.test
test_package
p76
(dp77
g13
(I2125
I25
I255
I255
I24
I5
tp78
sg15
g16
sg36
g37
sg42
Nsbaa(lp79
I5170052
ag2
a(ifuzz_configuration.test
test_package
p80
(dp81
g13
(I1507
I769
I2
I2
I0
I10
tp82
sg15
g16
sg36
g37
sg42
Nsbaa.